(dp1
S'sg_version_data'
p2
(dp3
S'code'
p4
S'v1.6.0'
p5
sS'description'
p6
S'Rebranded to ShotGrid'
p7
sS'tags'
p8
(lp9
sS'sg_payload'
p10
(dp11
S'name'
p12
S'tk-nuke-writenode_v1.6.0.zip'
p13
sS'url'
p14
S'https://s3-proxy.shotgunstudio.com/d18c13bf0e59a9a82f18be518a1b6b508bcbd774/b5167543ae6ecdcf10980cfe119d60ea23fc2d90/tk-nuke-writenode_v1.6.0.zip?response-content-disposition=filename%3D%22tk-nuke-writenode_v1.6.0.zip%22&x-amz-meta-user-id=26788&x-amz-meta-user-type=ApiUser&X-Amz-Algorithm=AWS4-HMAC-SHA256&X-Amz-Credential=ASIAYJG6Z4JIQS72OB7H%2F20210910%2Fus-west-2%2Fs3%2Faws4_request&X-Amz-Date=20210910T161324Z&X-Amz-Expires=900&X-Amz-SignedHeaders=host&X-Amz-Security-Token=FwoGZXIvYXdzEKH%2F%2F%2F%2F%2F%2F%2F%2F%2F%2FwEaDKCligtyZ2EIyVsbyiKvAXK6oDCIrYaxG7q4k39p0CWpKl%2BKoYGv2N3HnRwd9tR2v3XcZnji8STuqwN6gmm8pk8pB5Qo7j6YyoHa10Y4yPiCD%2F7rqxzSo7lGEaUZXDcVecY%2B0s2mXbAJWih%2F3oC2y722fhR5QlDxrO62ZMudPTVtM89ZdvS%2BEPa1h0DWc4bzEH%2FjLFuzCOYKe9jsedDuWy9FRQZuDgSPQsVsbG9EQbOi%2B0nlSh8VEg%2BnDitMrzEo3oHuiQYyLW8aiXcEJKS2ZeMbjU7OGmZJ%2Fn5C41k%2B1u3jD%2FriDEvg%2Fvo%2F9ZpIz%2FDTRq3D4A%3D%3D&X-Amz-Signature=fdcfb2d970e5c8a253c3e56c5662489fab2a352a0b3f4db2ce73493a5aa203c6'
p15
sS'content_type'
p16
S'application/zip'
p17
sS'type'
p18
S'Attachment'
p19
sS'id'
p20
I25871
sS'link_type'
p21
S'upload'
p22
ssS'sg_status_list'
p23
S'prod'
p24
sS'sg_detailed_release_notes'
p25
(dp26
S'name'
p27
S'v1.6.0'
p28
sS'url'
p29
S'https://support.shotgunsoftware.com/hc/en-us/articles/219032848#v1.6.0'
p30
sS'content_type'
p31
NsS'type'
p32
S'Attachment'
p33
sS'id'
p34
I25870
sS'link_type'
p35
S'web'
p36
ssS'sg_documentation'
p37
(dp38
S'name'
p39
S'Documentation'
p40
sS'url'
p41
S'https://support.shotgunsoftware.com/hc/en-us/articles/219032848'
p42
sS'content_type'
p43
NsS'type'
p44
S'Attachment'
p45
sS'id'
p46
I25869
sS'link_type'
p47
S'web'
p48
ssS'type'
p49
S'CustomNonProjectEntity05'
p50
sS'id'
p51
I4189
ssS'sg_bundle_data'
p52
(dp53
S'sg_status_list'
p54
S'depl'
p55
sS'type'
p56
S'CustomNonProjectEntity02'
p57
sS'id'
p58
I53
sS'sg_system_name'
p59
S'tk-nuke-writenode'
p60
sS'sg_deprecation_message'
p61
Nss.